target datalayout = "e-m:e-p270:32:32-p271:32:32-p272:64:64-i64:64-i128:128-f80:128-n8:16:32:64-S128"
target triple = "x86_64-pc-linux-gnu"

; Function Attrs: nounwind uwtable
define dso_local i32 @runenlen(ptr noundef %0, i32 noundef %1) #0 {
  %3 = alloca ptr, align 8
  %4 = alloca i32, align 4
  %5 = alloca i32, align 4
  %6 = alloca i32, align 4
  store ptr %0, ptr %3, align 8, !tbaa !4
  store i32 %1, ptr %4, align 4, !tbaa !11
  call void @llvm.lifetime.start.p0(i64 4, ptr %5) #2
  call void @llvm.lifetime.start.p0(i64 4, ptr %6) #2
  store i32 0, ptr %5, align 4, !tbaa !11
  br label %7

7:                                                ; preds = %37, %2
  %8 = load i32, ptr %4, align 4, !tbaa !11
  %9 = add nsw i32 %8, -1
  store i32 %9, ptr %4, align 4, !tbaa !11
  %10 = icmp ne i32 %8, 0
  br i1 %10, label %11, label %38

11:                                               ; preds = %7
  %12 = load ptr, ptr %3, align 8, !tbaa !4
  %13 = getelementptr inbounds nuw i32, ptr %12, i32 1
  store ptr %13, ptr %3, align 8, !tbaa !4
  %14 = load i32, ptr %12, align 4, !tbaa !11
  store i32 %14, ptr %6, align 4, !tbaa !11
  %15 = load i32, ptr %6, align 4, !tbaa !11
  %16 = icmp sle i32 %15, 127
  br i1 %16, label %17, label %20

17:                                               ; preds = %11
  %18 = load i32, ptr %5, align 4, !tbaa !11
  %19 = add nsw i32 %18, 1
  store i32 %19, ptr %5, align 4, !tbaa !11
  br label %37

20:                                               ; preds = %11
  %21 = load i32, ptr %6, align 4, !tbaa !11
  %22 = icmp sle i32 %21, 2047
  br i1 %22, label %23, label %26

23:                                               ; preds = %20
  %24 = load i32, ptr %5, align 4, !tbaa !11
  %25 = add nsw i32 %24, 2
  store i32 %25, ptr %5, align 4, !tbaa !11
  br label %36

26:                                               ; preds = %20
  %27 = load i32, ptr %6, align 4, !tbaa !11
  %28 = icmp sle i32 %27, 65535
  br i1 %28, label %29, label %32

29:                                               ; preds = %26
  %30 = load i32, ptr %5, align 4, !tbaa !11
  %31 = add nsw i32 %30, 3
  store i32 %31, ptr %5, align 4, !tbaa !11
  br label %35

32:                                               ; preds = %26
  %33 = load i32, ptr %5, align 4, !tbaa !11
  %34 = add nsw i32 %33, 4
  store i32 %34, ptr %5, align 4, !tbaa !11
  br label %35

35:                                               ; preds = %32, %29
  br label %36

36:                                               ; preds = %35, %23
  br label %37

37:                                               ; preds = %36, %17
  br label %7, !llvm.loop !16

38:                                               ; preds = %7
  %39 = load i32, ptr %5, align 4, !tbaa !11
  call void @llvm.lifetime.end.p0(i64 4, ptr %6) #2
  call void @llvm.lifetime.end.p0(i64 4, ptr %5) #2
  ret i32 %39
}