; Function Attrs: nofree norecurse nosync nounwind memory(argmem: read) uwtable
define dso_local range(i32 -2147483647, -2147483648) i32 @runenlen(ptr noundef readonly captures(none) %0, i32 noundef %1) local_unnamed_addr #2 {
  %.not12 = icmp eq i32 %1, 0
  br i1 %.not12, label %._crit_edge, label %.lr.ph

.lr.ph:                                           ; preds = %2, %11
  %.in = phi i32 [ %3, %11 ], [ %1, %2 ]
  %.014 = phi ptr [ %4, %11 ], [ %0, %2 ]
  %.0913 = phi i32 [ %12, %11 ], [ 0, %2 ]
  %3 = add nsw i32 %.in, -1
  %4 = getelementptr inbounds nuw i8, ptr %.014, i64 4
  %5 = load i32, ptr %.014, align 4, !tbaa !7
  %6 = icmp slt i32 %5, 128
  br i1 %6, label %11, label %7

7:                                                ; preds = %.lr.ph
  %8 = icmp samesign ult i32 %5, 2048
  br i1 %8, label %11, label %9

9:                                                ; preds = %7
  %10 = icmp samesign ult i32 %5, 65536
  %. = select i1 %10, i32 3, i32 4
  br label %11

11:                                               ; preds = %9, %7, %.lr.ph
  %.sink = phi i32 [ 1, %.lr.ph ], [ 2, %7 ], [ %., %9 ]
  %12 = add nuw nsw i32 %.0913, %.sink
  %.not = icmp eq i32 %3, 0
  br i1 %.not, label %._crit_edge, label %.lr.ph, !llvm.loop !9

._crit_edge:                                      ; preds = %11, %2
  %.09.lcssa = phi i32 [ 0, %2 ], [ %12, %11 ]
  ret i32 %.09.lcssa
}